target datalayout = "e-m:e-p270:32:32-p271:32:32-p272:64:64-i64:64-i128:128-f80:128-n8:16:32:64-S128"
target triple = "x86_64-pc-linux-gnu"

%struct.stbhw__process = type { ptr, ptr, ptr, ptr, ptr, i32, i32, i32 }
%struct.stbhw_config = type { i32, i32, [6 x i32], i32, i32, [4 x [4 x i32]] }

; Function Attrs: nounwind uwtable
define void @stbhw__process_v_row(ptr noundef %0, i32 noundef %1, i32 noundef %2, i32 noundef %3, i32 noundef %4, i32 noundef %5, i32 noundef %6, i32 noundef %7, i32 noundef %8, i32 noundef %9, i32 noundef %10, i32 noundef %11, i32 noundef %12, i32 noundef %13, i32 noundef %14, i32 noundef %15) #0 {
  %17 = alloca ptr, align 8
  %18 = alloca i32, align 4
  %19 = alloca i32, align 4
  %20 = alloca i32, align 4
  %21 = alloca i32, align 4
  %22 = alloca i32, align 4
  %23 = alloca i32, align 4
  %24 = alloca i32, align 4
  %25 = alloca i32, align 4
  %26 = alloca i32, align 4
  %27 = alloca i32, align 4
  %28 = alloca i32, align 4
  %29 = alloca i32, align 4
  %30 = alloca i32, align 4
  %31 = alloca i32, align 4
  %32 = alloca i32, align 4
  %33 = alloca i32, align 4
  %34 = alloca i32, align 4
  %35 = alloca i32, align 4
  %36 = alloca i32, align 4
  %37 = alloca i32, align 4
  %38 = alloca i32, align 4
  %39 = alloca i32, align 4
  store ptr %0, ptr %17, align 8, !tbaa !8
  store i32 %1, ptr %18, align 4, !tbaa !10
  store i32 %2, ptr %19, align 4, !tbaa !10
  store i32 %3, ptr %20, align 4, !tbaa !10
  store i32 %4, ptr %21, align 4, !tbaa !10
  store i32 %5, ptr %22, align 4, !tbaa !10
  store i32 %6, ptr %23, align 4, !tbaa !10
  store i32 %7, ptr %24, align 4, !tbaa !10
  store i32 %8, ptr %25, align 4, !tbaa !10
  store i32 %9, ptr %26, align 4, !tbaa !10
  store i32 %10, ptr %27, align 4, !tbaa !10
  store i32 %11, ptr %28, align 4, !tbaa !10
  store i32 %12, ptr %29, align 4, !tbaa !10
  store i32 %13, ptr %30, align 4, !tbaa !10
  store i32 %14, ptr %31, align 4, !tbaa !10
  store i32 %15, ptr %32, align 4, !tbaa !10
  call void @llvm.lifetime.start.p0(i64 4, ptr %33) #6
  call void @llvm.lifetime.start.p0(i64 4, ptr %34) #6
  call void @llvm.lifetime.start.p0(i64 4, ptr %35) #6
  call void @llvm.lifetime.start.p0(i64 4, ptr %36) #6
  call void @llvm.lifetime.start.p0(i64 4, ptr %37) #6
  call void @llvm.lifetime.start.p0(i64 4, ptr %38) #6
  call void @llvm.lifetime.start.p0(i64 4, ptr %39) #6
  store i32 0, ptr %39, align 4, !tbaa !10
  br label %40

40:                                               ; preds = %125, %16
  %41 = load i32, ptr %39, align 4, !tbaa !10
  %42 = load i32, ptr %32, align 4, !tbaa !10
  %43 = icmp slt i32 %41, %42
  br i1 %43, label %44, label %128

44:                                               ; preds = %40
  %45 = load i32, ptr %30, align 4, !tbaa !10
  store i32 %45, ptr %38, align 4, !tbaa !10
  br label %46

46:                                               ; preds = %121, %44
  %47 = load i32, ptr %38, align 4, !tbaa !10
  %48 = load i32, ptr %31, align 4, !tbaa !10
  %49 = icmp sle i32 %47, %48
  br i1 %49, label %50, label %124

50:                                               ; preds = %46
  %51 = load i32, ptr %28, align 4, !tbaa !10
  store i32 %51, ptr %37, align 4, !tbaa !10
  br label %52

52:                                               ; preds = %117, %50
  %53 = load i32, ptr %37, align 4, !tbaa !10
  %54 = load i32, ptr %29, align 4, !tbaa !10
  %55 = icmp sle i32 %53, %54
  br i1 %55, label %56, label %120

56:                                               ; preds = %52
  %57 = load i32, ptr %26, align 4, !tbaa !10
  store i32 %57, ptr %36, align 4, !tbaa !10
  br label %58

58:                                               ; preds = %113, %56
  %59 = load i32, ptr %36, align 4, !tbaa !10
  %60 = load i32, ptr %27, align 4, !tbaa !10
  %61 = icmp sle i32 %59, %60
  br i1 %61, label %62, label %116

62:                                               ; preds = %58
  %63 = load i32, ptr %24, align 4, !tbaa !10
  store i32 %63, ptr %35, align 4, !tbaa !10
  br label %64

64:                                               ; preds = %109, %62
  %65 = load i32, ptr %35, align 4, !tbaa !10
  %66 = load i32, ptr %25, align 4, !tbaa !10
  %67 = icmp sle i32 %65, %66
  br i1 %67, label %68, label %112

68:                                               ; preds = %64
  %69 = load i32, ptr %22, align 4, !tbaa !10
  store i32 %69, ptr %34, align 4, !tbaa !10
  br label %70

70:                                               ; preds = %105, %68
  %71 = load i32, ptr %34, align 4, !tbaa !10
  %72 = load i32, ptr %23, align 4, !tbaa !10
  %73 = icmp sle i32 %71, %72
  br i1 %73, label %74, label %108

74:                                               ; preds = %70
  %75 = load i32, ptr %20, align 4, !tbaa !10
  store i32 %75, ptr %33, align 4, !tbaa !10
  br label %76

76:                                               ; preds = %101, %74
  %77 = load i32, ptr %33, align 4, !tbaa !10
  %78 = load i32, ptr %21, align 4, !tbaa !10
  %79 = icmp sle i32 %77, %78
  br i1 %79, label %80, label %104

80:                                               ; preds = %76
  %81 = load ptr, ptr %17, align 8, !tbaa !8
  %82 = getelementptr inbounds nuw %struct.stbhw__process, ptr %81, i32 0, i32 3
  %83 = load ptr, ptr %82, align 8, !tbaa !26
  %84 = load ptr, ptr %17, align 8, !tbaa !8
  %85 = load i32, ptr %18, align 4, !tbaa !10
  %86 = load i32, ptr %19, align 4, !tbaa !10
  %87 = load i32, ptr %33, align 4, !tbaa !10
  %88 = load i32, ptr %34, align 4, !tbaa !10
  %89 = load i32, ptr %35, align 4, !tbaa !10
  %90 = load i32, ptr %36, align 4, !tbaa !10
  %91 = load i32, ptr %37, align 4, !tbaa !10
  %92 = load i32, ptr %38, align 4, !tbaa !10
  call void %83(ptr noundef %84, i32 noundef %85, i32 noundef %86, i32 noundef %87, i32 noundef %88, i32 noundef %89, i32 noundef %90, i32 noundef %91, i32 noundef %92)
  %93 = load ptr, ptr %17, align 8, !tbaa !8
  %94 = getelementptr inbounds nuw %struct.stbhw__process, ptr %93, i32 0, i32 1
  %95 = load ptr, ptr %94, align 8, !tbaa !15
  %96 = getelementptr inbounds nuw %struct.stbhw_config, ptr %95, i32 0, i32 1
  %97 = load i32, ptr %96, align 4, !tbaa !16
  %98 = add nsw i32 %97, 3
  %99 = load i32, ptr %18, align 4, !tbaa !10
  %100 = add nsw i32 %99, %98
  store i32 %100, ptr %18, align 4, !tbaa !10
  br label %101

101:                                              ; preds = %80
  %102 = load i32, ptr %33, align 4, !tbaa !10
  %103 = add nsw i32 %102, 1
  store i32 %103, ptr %33, align 4, !tbaa !10
  br label %76, !llvm.loop !27

104:                                              ; preds = %76
  br label %105

105:                                              ; preds = %104
  %106 = load i32, ptr %34, align 4, !tbaa !10
  %107 = add nsw i32 %106, 1
  store i32 %107, ptr %34, align 4, !tbaa !10
  br label %70, !llvm.loop !28

108:                                              ; preds = %70
  br label %109

109:                                              ; preds = %108
  %110 = load i32, ptr %35, align 4, !tbaa !10
  %111 = add nsw i32 %110, 1
  store i32 %111, ptr %35, align 4, !tbaa !10
  br label %64, !llvm.loop !29

112:                                              ; preds = %64
  br label %113

113:                                              ; preds = %112
  %114 = load i32, ptr %36, align 4, !tbaa !10
  %115 = add nsw i32 %114, 1
  store i32 %115, ptr %36, align 4, !tbaa !10
  br label %58, !llvm.loop !30

116:                                              ; preds = %58
  br label %117

117:                                              ; preds = %116
  %118 = load i32, ptr %37, align 4, !tbaa !10
  %119 = add nsw i32 %118, 1
  store i32 %119, ptr %37, align 4, !tbaa !10
  br label %52, !llvm.loop !31

120:                                              ; preds = %52
  br label %121

121:                                              ; preds = %120
  %122 = load i32, ptr %38, align 4, !tbaa !10
  %123 = add nsw i32 %122, 1
  store i32 %123, ptr %38, align 4, !tbaa !10
  br label %46, !llvm.loop !32

124:                                              ; preds = %46
  br label %125

125:                                              ; preds = %124
  %126 = load i32, ptr %39, align 4, !tbaa !10
  %127 = add nsw i32 %126, 1
  store i32 %127, ptr %39, align 4, !tbaa !10
  br label %40, !llvm.loop !33

128:                                              ; preds = %40
  call void @llvm.lifetime.end.p0(i64 4, ptr %39) #6
  call void @llvm.lifetime.end.p0(i64 4, ptr %38) #6
  call void @llvm.lifetime.end.p0(i64 4, ptr %37) #6
  call void @llvm.lifetime.end.p0(i64 4, ptr %36) #6
  call void @llvm.lifetime.end.p0(i64 4, ptr %35) #6
  call void @llvm.lifetime.end.p0(i64 4, ptr %34) #6
  call void @llvm.lifetime.end.p0(i64 4, ptr %33) #6
  ret void
}